target datalayout = "e-m:e-p270:32:32-p271:32:32-p272:64:64-i64:64-i128:128-f80:128-n8:16:32:64-S128"
target triple = "x86_64-pc-linux-gnu"

%"struct.vcpkg::ArchiveMemberHeader" = type { [16 x i8], [12 x i8], [6 x i8], [6 x i8], [8 x i8], [10 x i8], [2 x i8] }

; Function Attrs: mustprogress nounwind uwtable
define dso_local noundef i64 @_ZNK5vcpkg19ArchiveMemberHeader12decoded_sizeEv(ptr noundef nonnull align 1 dereferenceable(60) %0) #0 align 2 {
  %2 = alloca ptr, align 8
  %3 = alloca [11 x i8], align 1
  %4 = alloca i64, align 8
  store ptr %0, ptr %2, align 8, !tbaa !42
  %5 = load ptr, ptr %2, align 8
  call void @llvm.lifetime.start.p0(i64 11, ptr %3) #19
  %6 = getelementptr inbounds [11 x i8], ptr %3, i64 0, i64 0
  %7 = getelementptr inbounds nuw %"struct.vcpkg::ArchiveMemberHeader", ptr %5, i32 0, i32 5
  %8 = getelementptr inbounds [10 x i8], ptr %7, i64 0, i64 0
  call void @llvm.memcpy.p0.p0.i64(ptr align 1 %6, ptr align 1 %8, i64 10, i1 false)
  %9 = getelementptr inbounds [11 x i8], ptr %3, i64 0, i64 10
  store i8 0, ptr %9, align 1, !tbaa !27
  call void @llvm.lifetime.start.p0(i64 8, ptr %4) #19
  %10 = getelementptr inbounds [11 x i8], ptr %3, i64 0, i64 0
  %11 = call i64 @strtoull(ptr noundef %10, ptr noundef null, i32 noundef 10) #19
  store i64 %11, ptr %4, align 8, !tbaa !32
  %12 = load i64, ptr %4, align 8, !tbaa !32
  %13 = and i64 %12, 1
  %14 = icmp ne i64 %13, 0
  br i1 %14, label %15, label %18

15:                                               ; preds = %1
  %16 = load i64, ptr %4, align 8, !tbaa !32
  %17 = add i64 %16, 1
  store i64 %17, ptr %4, align 8, !tbaa !32
  br label %18

18:                                               ; preds = %15, %1
  %19 = load i64, ptr %4, align 8, !tbaa !32
  call void @llvm.lifetime.end.p0(i64 8, ptr %4) #19
  call void @llvm.lifetime.end.p0(i64 11, ptr %3) #19
  ret i64 %19
}