; Function Attrs: mustprogress nofree nounwind willreturn uwtable
define dso_local noundef i64 @_ZNK5vcpkg19ArchiveMemberHeader12decoded_sizeEv(ptr noundef nonnull readonly align 1 captures(none) dereferenceable(60) %0) local_unnamed_addr #7 align 2 {
  %2 = alloca [11 x i8], align 1
  call void @llvm.lifetime.start.p0(i64 11, ptr nonnull %2) #25
  %3 = getelementptr inbounds nuw i8, ptr %0, i64 48
  call void @llvm.memcpy.p0.p0.i64(ptr noundef nonnull align 1 dereferenceable(10) %2, ptr noundef nonnull align 1 dereferenceable(10) %3, i64 10, i1 false)
  %4 = getelementptr inbounds nuw i8, ptr %2, i64 10
  store i8 0, ptr %4, align 1, !tbaa !25
  %5 = call i64 @strtoull(ptr noundef nonnull captures(none) %2, ptr noundef null, i32 noundef 10) #25
  %6 = and i64 %5, 1
  %spec.select = add i64 %6, %5
  call void @llvm.lifetime.end.p0(i64 11, ptr nonnull %2) #25
  ret i64 %spec.select
}